TN:
SF:/home/nevena/VS/2048/src/Utils.cpp
FN:5,_ZN5Utils8randEvenEi
FNDA:6,_ZN5Utils8randEvenEi
DA:5,6
DA:7,6
DA:9,6
DA:11,0
DA:13,6
DA:15,5
DA:18,6
end_of_record
TN:
SF:/home/nevena/VS/2048/src/Game.cpp
FN:7,_ZN4GameC2Ev
FNDA:4,_ZN4GameC2Ev
FN:29,_ZN4GameD2Ev
FNDA:4,_ZN4GameD2Ev
FN:33,_ZN4Game4initEv
FNDA:4,_ZN4Game4initEv
FN:41,_ZN4Game12drawHBarrierEi
FNDA:0,_ZN4Game12drawHBarrierEi
FN:52,_ZN4Game13drawGameBoardEv
FNDA:0,_ZN4Game13drawGameBoardEv
FN:125,_ZN4Game6updateEv
FNDA:0,_ZN4Game6updateEv
FN:131,_ZN4Game11checkFinishEv
FNDA:4,_ZN4Game11checkFinishEv
FN:166,_ZN4Game11fillRandPosERSt6vectorIS0_IiSaIiEESaIS2_EE
FNDA:8,_ZN4Game11fillRandPosERSt6vectorIS0_IiSaIiEESaIS2_EE
FN:181,_ZN4Game6setKeyEi
FNDA:0,_ZN4Game6setKeyEi
FN:186,_ZNK4Game6getKeyEv
FNDA:0,_ZNK4Game6getKeyEv
FN:191,_ZN4Game8setPointEi
FNDA:0,_ZN4Game8setPointEi
FN:196,_ZNK4Game8getPointEv
FNDA:0,_ZNK4Game8getPointEv
FN:201,_ZNK4Game12getGameBoardEv
FNDA:0,_ZNK4Game12getGameBoardEv
FN:206,_ZN4Game12setGameBoardESt6vectorIS0_IiSaIiEESaIS2_EE
FNDA:4,_ZN4Game12setGameBoardESt6vectorIS0_IiSaIiEESaIS2_EE
FN:211,_ZNK4Game8isFinishEv
FNDA:4,_ZNK4Game8isFinishEv
DA:7,4
DA:9,4
DA:10,4
DA:12,4
DA:14,20
DA:16,16
DA:18,16
DA:20,96
DA:22,80
DA:25,16
DA:26,16
DA:27,4
DA:29,4
DA:31,4
DA:33,4
DA:35,12
DA:37,8
DA:39,4
DA:41,0
DA:43,0
DA:44,0
DA:46,0
DA:47,0
DA:49,0
DA:50,0
DA:52,0
DA:54,0
DA:55,0
DA:56,0
DA:58,0
DA:59,0
DA:60,0
DA:62,0
DA:63,0
DA:64,0
DA:65,0
DA:67,0
DA:71,0
DA:73,0
DA:75,0
DA:77,0
DA:78,0
DA:80,0
DA:82,0
DA:83,0
DA:85,0
DA:87,0
DA:88,0
DA:90,0
DA:92,0
DA:93,0
DA:95,0
DA:97,0
DA:98,0
DA:100,0
DA:102,0
DA:103,0
DA:105,0
DA:107,0
DA:108,0
DA:110,0
DA:112,0
DA:114,0
DA:115,0
DA:117,0
DA:119,0
DA:121,0
DA:122,0
DA:123,0
DA:125,0
DA:127,0
DA:128,0
DA:129,0
DA:131,4
DA:133,18
DA:135,15
DA:136,15
DA:138,1
DA:142,9
DA:144,42
DA:146,36
DA:148,31
DA:150,1
DA:154,35
DA:156,29
DA:158,1
DA:163,1
DA:166,8
DA:170,8
DA:171,8
DA:173,8
DA:175,8
DA:176,8
DA:178,0
DA:179,8
DA:181,0
DA:183,0
DA:184,0
DA:186,0
DA:188,0
DA:191,0
DA:193,0
DA:194,0
DA:196,0
DA:198,0
DA:201,0
DA:203,0
DA:206,4
DA:208,4
DA:209,4
DA:211,4
DA:213,4
end_of_record
SF:/home/nevena/VS/2048/app/KeyPushManager.hpp
end_of_record
TN:
SF:/home/nevena/VS/2048/src/KeyPushManager.cpp
FN:3,_ZN14KeyPushManagerC2ER4Game
FNDA:0,_ZN14KeyPushManagerC2ER4Game
FN:8,_ZN14KeyPushManager11waitKeyPushEv
FNDA:0,_ZN14KeyPushManager11waitKeyPushEv
FN:17,_ZN14KeyPushManager23onKeyboardHitRefactoredEv
FNDA:0,_ZN14KeyPushManager23onKeyboardHitRefactoredEv
FN:28,_ZN14KeyPushManager13onKeyboardHitEv
FNDA:0,_ZN14KeyPushManager13onKeyboardHitEv
FN:61,_ZN14KeyPushManager6moveUpEv
FNDA:0,_ZN14KeyPushManager6moveUpEv
FN:91,_ZN14KeyPushManager8moveDownEv
FNDA:0,_ZN14KeyPushManager8moveDownEv
FN:120,_ZN14KeyPushManager8moveLeftEv
FNDA:0,_ZN14KeyPushManager8moveLeftEv
FN:149,_ZN14KeyPushManager9moveRightEv
FNDA:0,_ZN14KeyPushManager9moveRightEv
FN:178,_ZNK14KeyPushManager12getGameBoardEv
FNDA:0,_ZNK14KeyPushManager12getGameBoardEv
FN:182,_ZN14KeyPushManager7setMKeyEi
FNDA:0,_ZN14KeyPushManager7setMKeyEi
DA:3,0
DA:5,0
DA:6,0
DA:8,0
DA:10,0
DA:11,0
DA:12,0
DA:14,0
DA:15,0
DA:17,0
DA:19,0
DA:20,0
DA:22,0
DA:24,0
DA:25,0
DA:26,0
DA:28,0
DA:30,0
DA:31,0
DA:33,0
DA:36,0
DA:38,0
DA:39,0
DA:42,0
DA:44,0
DA:45,0
DA:48,0
DA:50,0
DA:51,0
DA:54,0
DA:56,0
DA:58,0
DA:59,0
DA:61,0
DA:63,0
DA:65,0
DA:67,0
DA:69,0
DA:72,0
DA:73,0
DA:74,0
DA:77,0
DA:79,0
DA:81,0
DA:82,0
DA:83,0
DA:89,0
DA:91,0
DA:93,0
DA:95,0
DA:97,0
DA:99,0
DA:101,0
DA:102,0
DA:103,0
DA:106,0
DA:108,0
DA:110,0
DA:111,0
DA:112,0
DA:118,0
DA:120,0
DA:122,0
DA:124,0
DA:126,0
DA:128,0
DA:130,0
DA:131,0
DA:132,0
DA:135,0
DA:137,0
DA:139,0
DA:140,0
DA:141,0
DA:147,0
DA:149,0
DA:151,0
DA:153,0
DA:155,0
DA:157,0
DA:159,0
DA:160,0
DA:161,0
DA:164,0
DA:166,0
DA:168,0
DA:169,0
DA:170,0
DA:176,0
DA:178,0
DA:179,0
DA:182,0
DA:183,0
DA:184,0
end_of_record
TN:
SF:/home/nevena/VS/2048/src/Kbhit.cpp
FN:4,_ZN5KbhitC2Ev
FNDA:0,_ZN5KbhitC2Ev
FN:17,_ZN5KbhitD2Ev
FNDA:0,_ZN5KbhitD2Ev
FN:22,_ZN5Kbhit5kbhitEv
FNDA:0,_ZN5Kbhit5kbhitEv
FN:42,_ZN5Kbhit5getchEv
FNDA:0,_ZN5Kbhit5getchEv
DA:4,0
DA:6,0
DA:7,0
DA:8,0
DA:9,0
DA:10,0
DA:11,0
DA:12,0
DA:13,0
DA:14,0
DA:15,0
DA:17,0
DA:19,0
DA:20,0
DA:22,0
DA:27,0
DA:28,0
DA:29,0
DA:30,0
DA:31,0
DA:32,0
DA:34,0
DA:36,0
DA:37,0
DA:39,0
DA:42,0
DA:46,0
DA:48,0
DA:49,0
DA:50,0
DA:52,0
end_of_record
TN:
SF:/home/nevena/VS/2048/src/Utils.cpp
FN:5,_ZN5Utils8randEvenEi
FNDA:8,_ZN5Utils8randEvenEi
DA:5,8
DA:7,8
DA:9,8
DA:11,0
DA:13,8
DA:15,7
DA:18,8
end_of_record
TN:
SF:/home/nevena/VS/2048/src/Game.cpp
FN:7,_ZN4GameC2Ev
FNDA:3,_ZN4GameC2Ev
FN:29,_ZN4GameD2Ev
FNDA:3,_ZN4GameD2Ev
FN:33,_ZN4Game4initEv
FNDA:3,_ZN4Game4initEv
FN:41,_ZN4Game12drawHBarrierEi
FNDA:0,_ZN4Game12drawHBarrierEi
FN:52,_ZN4Game13drawGameBoardEv
FNDA:0,_ZN4Game13drawGameBoardEv
FN:125,_ZN4Game6updateEv
FNDA:0,_ZN4Game6updateEv
FN:131,_ZN4Game11checkFinishEv
FNDA:0,_ZN4Game11checkFinishEv
FN:166,_ZN4Game11fillRandPosERSt6vectorIS0_IiSaIiEESaIS2_EE
FNDA:6,_ZN4Game11fillRandPosERSt6vectorIS0_IiSaIiEESaIS2_EE
FN:181,_ZN4Game6setKeyEi
FNDA:0,_ZN4Game6setKeyEi
FN:186,_ZNK4Game6getKeyEv
FNDA:0,_ZNK4Game6getKeyEv
FN:191,_ZN4Game8setPointEi
FNDA:0,_ZN4Game8setPointEi
FN:196,_ZNK4Game8getPointEv
FNDA:0,_ZNK4Game8getPointEv
FN:201,_ZNK4Game12getGameBoardEv
FNDA:3,_ZNK4Game12getGameBoardEv
FN:206,_ZN4Game12setGameBoardESt6vectorIS0_IiSaIiEESaIS2_EE
FNDA:0,_ZN4Game12setGameBoardESt6vectorIS0_IiSaIiEESaIS2_EE
FN:211,_ZNK4Game8isFinishEv
FNDA:0,_ZNK4Game8isFinishEv
DA:7,3
DA:9,3
DA:10,3
DA:12,3
DA:14,15
DA:16,12
DA:18,12
DA:20,72
DA:22,60
DA:25,12
DA:26,12
DA:27,3
DA:29,3
DA:31,3
DA:33,3
DA:35,9
DA:37,6
DA:39,3
DA:41,0
DA:43,0
DA:44,0
DA:46,0
DA:47,0
DA:49,0
DA:50,0
DA:52,0
DA:54,0
DA:55,0
DA:56,0
DA:58,0
DA:59,0
DA:60,0
DA:62,0
DA:63,0
DA:64,0
DA:65,0
DA:67,0
DA:71,0
DA:73,0
DA:75,0
DA:77,0
DA:78,0
DA:80,0
DA:82,0
DA:83,0
DA:85,0
DA:87,0
DA:88,0
DA:90,0
DA:92,0
DA:93,0
DA:95,0
DA:97,0
DA:98,0
DA:100,0
DA:102,0
DA:103,0
DA:105,0
DA:107,0
DA:108,0
DA:110,0
DA:112,0
DA:114,0
DA:115,0
DA:117,0
DA:119,0
DA:121,0
DA:122,0
DA:123,0
DA:125,0
DA:127,0
DA:128,0
DA:129,0
DA:131,0
DA:133,0
DA:135,0
DA:136,0
DA:138,0
DA:142,0
DA:144,0
DA:146,0
DA:148,0
DA:150,0
DA:154,0
DA:156,0
DA:158,0
DA:163,0
DA:166,6
DA:170,6
DA:171,6
DA:173,6
DA:175,6
DA:176,6
DA:178,0
DA:179,6
DA:181,0
DA:183,0
DA:184,0
DA:186,0
DA:188,0
DA:191,0
DA:193,0
DA:194,0
DA:196,0
DA:198,0
DA:201,3
DA:203,3
DA:206,0
DA:208,0
DA:209,0
DA:211,0
DA:213,0
end_of_record
SF:/home/nevena/VS/2048/app/KeyPushManager.hpp
end_of_record
TN:
SF:/home/nevena/VS/2048/src/Kbhit.cpp
FN:4,_ZN5KbhitC2Ev
FNDA:0,_ZN5KbhitC2Ev
FN:17,_ZN5KbhitD2Ev
FNDA:0,_ZN5KbhitD2Ev
FN:22,_ZN5Kbhit5kbhitEv
FNDA:0,_ZN5Kbhit5kbhitEv
FN:42,_ZN5Kbhit5getchEv
FNDA:0,_ZN5Kbhit5getchEv
DA:4,0
DA:6,0
DA:7,0
DA:8,0
DA:9,0
DA:10,0
DA:11,0
DA:12,0
DA:13,0
DA:14,0
DA:15,0
DA:17,0
DA:19,0
DA:20,0
DA:22,0
DA:27,0
DA:28,0
DA:29,0
DA:30,0
DA:31,0
DA:32,0
DA:34,0
DA:36,0
DA:37,0
DA:39,0
DA:42,0
DA:46,0
DA:48,0
DA:49,0
DA:50,0
DA:52,0
end_of_record
TN:
SF:/home/nevena/VS/2048/src/Utils.cpp
FN:5,_ZN5Utils8randEvenEi
FNDA:0,_ZN5Utils8randEvenEi
DA:5,0
DA:7,0
DA:9,0
DA:11,0
DA:13,0
DA:15,0
DA:18,0
end_of_record
TN:
SF:/home/nevena/VS/2048/src/KeyPushManager.cpp
FN:3,_ZN14KeyPushManagerC2ER4Game
FNDA:0,_ZN14KeyPushManagerC2ER4Game
FN:8,_ZN14KeyPushManager11waitKeyPushEv
FNDA:0,_ZN14KeyPushManager11waitKeyPushEv
FN:17,_ZN14KeyPushManager23onKeyboardHitRefactoredEv
FNDA:0,_ZN14KeyPushManager23onKeyboardHitRefactoredEv
FN:28,_ZN14KeyPushManager13onKeyboardHitEv
FNDA:0,_ZN14KeyPushManager13onKeyboardHitEv
FN:61,_ZN14KeyPushManager6moveUpEv
FNDA:0,_ZN14KeyPushManager6moveUpEv
FN:91,_ZN14KeyPushManager8moveDownEv
FNDA:0,_ZN14KeyPushManager8moveDownEv
FN:120,_ZN14KeyPushManager8moveLeftEv
FNDA:0,_ZN14KeyPushManager8moveLeftEv
FN:149,_ZN14KeyPushManager9moveRightEv
FNDA:0,_ZN14KeyPushManager9moveRightEv
FN:178,_ZNK14KeyPushManager12getGameBoardEv
FNDA:0,_ZNK14KeyPushManager12getGameBoardEv
FN:182,_ZN14KeyPushManager7setMKeyEi
FNDA:0,_ZN14KeyPushManager7setMKeyEi
DA:3,0
DA:5,0
DA:6,0
DA:8,0
DA:10,0
DA:11,0
DA:12,0
DA:14,0
DA:15,0
DA:17,0
DA:19,0
DA:20,0
DA:22,0
DA:24,0
DA:25,0
DA:26,0
DA:28,0
DA:30,0
DA:31,0
DA:33,0
DA:36,0
DA:38,0
DA:39,0
DA:42,0
DA:44,0
DA:45,0
DA:48,0
DA:50,0
DA:51,0
DA:54,0
DA:56,0
DA:58,0
DA:59,0
DA:61,0
DA:63,0
DA:65,0
DA:67,0
DA:69,0
DA:72,0
DA:73,0
DA:74,0
DA:77,0
DA:79,0
DA:81,0
DA:82,0
DA:83,0
DA:89,0
DA:91,0
DA:93,0
DA:95,0
DA:97,0
DA:99,0
DA:101,0
DA:102,0
DA:103,0
DA:106,0
DA:108,0
DA:110,0
DA:111,0
DA:112,0
DA:118,0
DA:120,0
DA:122,0
DA:124,0
DA:126,0
DA:128,0
DA:130,0
DA:131,0
DA:132,0
DA:135,0
DA:137,0
DA:139,0
DA:140,0
DA:141,0
DA:147,0
DA:149,0
DA:151,0
DA:153,0
DA:155,0
DA:157,0
DA:159,0
DA:160,0
DA:161,0
DA:164,0
DA:166,0
DA:168,0
DA:169,0
DA:170,0
DA:176,0
DA:178,0
DA:179,0
DA:182,0
DA:183,0
DA:184,0
end_of_record
TN:
SF:/home/nevena/VS/2048/src/KeyPushManager.cpp
FN:3,_ZN14KeyPushManagerC2ER4Game
FNDA:4,_ZN14KeyPushManagerC2ER4Game
FN:8,_ZN14KeyPushManager11waitKeyPushEv
FNDA:0,_ZN14KeyPushManager11waitKeyPushEv
FN:17,_ZN14KeyPushManager23onKeyboardHitRefactoredEv
FNDA:0,_ZN14KeyPushManager23onKeyboardHitRefactoredEv
FN:28,_ZN14KeyPushManager13onKeyboardHitEv
FNDA:4,_ZN14KeyPushManager13onKeyboardHitEv
FN:61,_ZN14KeyPushManager6moveUpEv
FNDA:0,_ZN14KeyPushManager6moveUpEv
FN:91,_ZN14KeyPushManager8moveDownEv
FNDA:4,_ZN14KeyPushManager8moveDownEv
FN:120,_ZN14KeyPushManager8moveLeftEv
FNDA:0,_ZN14KeyPushManager8moveLeftEv
FN:149,_ZN14KeyPushManager9moveRightEv
FNDA:0,_ZN14KeyPushManager9moveRightEv
FN:178,_ZNK14KeyPushManager12getGameBoardEv
FNDA:4,_ZNK14KeyPushManager12getGameBoardEv
FN:182,_ZN14KeyPushManager7setMKeyEi
FNDA:4,_ZN14KeyPushManager7setMKeyEi
DA:3,4
DA:5,4
DA:6,4
DA:8,0
DA:10,0
DA:11,0
DA:12,0
DA:14,0
DA:15,0
DA:17,0
DA:19,0
DA:20,0
DA:22,0
DA:24,0
DA:25,0
DA:26,0
DA:28,4
DA:30,4
DA:31,4
DA:33,0
DA:36,0
DA:38,0
DA:39,4
DA:42,4
DA:44,4
DA:45,0
DA:48,0
DA:50,0
DA:51,0
DA:54,0
DA:56,0
DA:58,4
DA:59,4
DA:61,0
DA:63,0
DA:65,0
DA:67,0
DA:69,0
DA:72,0
DA:73,0
DA:74,0
DA:77,0
DA:79,0
DA:81,0
DA:82,0
DA:83,0
DA:89,0
DA:91,4
DA:93,20
DA:95,64
DA:97,288
DA:99,240
DA:101,84
DA:102,159
DA:103,75
DA:106,16
DA:108,7
DA:110,16
DA:111,16
DA:112,16
DA:118,4
DA:120,0
DA:122,0
DA:124,0
DA:126,0
DA:128,0
DA:130,0
DA:131,0
DA:132,0
DA:135,0
DA:137,0
DA:139,0
DA:140,0
DA:141,0
DA:147,0
DA:149,0
DA:151,0
DA:153,0
DA:155,0
DA:157,0
DA:159,0
DA:160,0
DA:161,0
DA:164,0
DA:166,0
DA:168,0
DA:169,0
DA:170,0
DA:176,0
DA:178,4
DA:179,4
DA:182,4
DA:183,4
DA:184,4
end_of_record
TN:
SF:/home/nevena/VS/2048/src/Utils.cpp
FN:5,_ZN5Utils8randEvenEi
FNDA:0,_ZN5Utils8randEvenEi
DA:5,0
DA:7,0
DA:9,0
DA:11,0
DA:13,0
DA:15,0
DA:18,0
end_of_record
TN:
SF:/home/nevena/VS/2048/src/KeyPushManager.cpp
FN:3,_ZN14KeyPushManagerC2ER4Game
FNDA:4,_ZN14KeyPushManagerC2ER4Game
FN:8,_ZN14KeyPushManager11waitKeyPushEv
FNDA:0,_ZN14KeyPushManager11waitKeyPushEv
FN:17,_ZN14KeyPushManager23onKeyboardHitRefactoredEv
FNDA:0,_ZN14KeyPushManager23onKeyboardHitRefactoredEv
FN:28,_ZN14KeyPushManager13onKeyboardHitEv
FNDA:4,_ZN14KeyPushManager13onKeyboardHitEv
FN:61,_ZN14KeyPushManager6moveUpEv
FNDA:0,_ZN14KeyPushManager6moveUpEv
FN:91,_ZN14KeyPushManager8moveDownEv
FNDA:0,_ZN14KeyPushManager8moveDownEv
FN:120,_ZN14KeyPushManager8moveLeftEv
FNDA:4,_ZN14KeyPushManager8moveLeftEv
FN:149,_ZN14KeyPushManager9moveRightEv
FNDA:0,_ZN14KeyPushManager9moveRightEv
FN:178,_ZNK14KeyPushManager12getGameBoardEv
FNDA:4,_ZNK14KeyPushManager12getGameBoardEv
FN:182,_ZN14KeyPushManager7setMKeyEi
FNDA:4,_ZN14KeyPushManager7setMKeyEi
DA:3,4
DA:5,4
DA:6,4
DA:8,0
DA:10,0
DA:11,0
DA:12,0
DA:14,0
DA:15,0
DA:17,0
DA:19,0
DA:20,0
DA:22,0
DA:24,0
DA:25,0
DA:26,0
DA:28,4
DA:30,4
DA:31,4
DA:33,4
DA:36,4
DA:38,4
DA:39,0
DA:42,0
DA:44,0
DA:45,0
DA:48,0
DA:50,0
DA:51,0
DA:54,0
DA:56,0
DA:58,4
DA:59,4
DA:61,0
DA:63,0
DA:65,0
DA:67,0
DA:69,0
DA:72,0
DA:73,0
DA:74,0
DA:77,0
DA:79,0
DA:81,0
DA:82,0
DA:83,0
DA:89,0
DA:91,0
DA:93,0
DA:95,0
DA:97,0
DA:99,0
DA:101,0
DA:102,0
DA:103,0
DA:106,0
DA:108,0
DA:110,0
DA:111,0
DA:112,0
DA:118,0
DA:120,4
DA:122,20
DA:124,80
DA:126,320
DA:128,256
DA:130,103
DA:131,182
DA:132,79
DA:135,31
DA:137,7
DA:139,31
DA:140,31
DA:141,31
DA:147,4
DA:149,0
DA:151,0
DA:153,0
DA:155,0
DA:157,0
DA:159,0
DA:160,0
DA:161,0
DA:164,0
DA:166,0
DA:168,0
DA:169,0
DA:170,0
DA:176,0
DA:178,4
DA:179,4
DA:182,4
DA:183,4
DA:184,4
end_of_record
TN:
SF:/home/nevena/VS/2048/src/Kbhit.cpp
FN:4,_ZN5KbhitC2Ev
FNDA:0,_ZN5KbhitC2Ev
FN:17,_ZN5KbhitD2Ev
FNDA:0,_ZN5KbhitD2Ev
FN:22,_ZN5Kbhit5kbhitEv
FNDA:0,_ZN5Kbhit5kbhitEv
FN:42,_ZN5Kbhit5getchEv
FNDA:0,_ZN5Kbhit5getchEv
DA:4,0
DA:6,0
DA:7,0
DA:8,0
DA:9,0
DA:10,0
DA:11,0
DA:12,0
DA:13,0
DA:14,0
DA:15,0
DA:17,0
DA:19,0
DA:20,0
DA:22,0
DA:27,0
DA:28,0
DA:29,0
DA:30,0
DA:31,0
DA:32,0
DA:34,0
DA:36,0
DA:37,0
DA:39,0
DA:42,0
DA:46,0
DA:48,0
DA:49,0
DA:50,0
DA:52,0
end_of_record
TN:
SF:/home/nevena/VS/2048/app/KeyPushManager.hpp
end_of_record
SF:/home/nevena/VS/2048/src/Game.cpp
FN:7,_ZN4GameC2Ev
FNDA:9,_ZN4GameC2Ev
FN:29,_ZN4GameD2Ev
FNDA:9,_ZN4GameD2Ev
FN:33,_ZN4Game4initEv
FNDA:1,_ZN4Game4initEv
FN:41,_ZN4Game12drawHBarrierEi
FNDA:0,_ZN4Game12drawHBarrierEi
FN:52,_ZN4Game13drawGameBoardEv
FNDA:0,_ZN4Game13drawGameBoardEv
FN:125,_ZN4Game6updateEv
FNDA:0,_ZN4Game6updateEv
FN:131,_ZN4Game11checkFinishEv
FNDA:4,_ZN4Game11checkFinishEv
FN:166,_ZN4Game11fillRandPosERSt6vectorIS0_IiSaIiEESaIS2_EE
FNDA:6,_ZN4Game11fillRandPosERSt6vectorIS0_IiSaIiEESaIS2_EE
FN:181,_ZN4Game6setKeyEi
FNDA:0,_ZN4Game6setKeyEi
FN:186,_ZNK4Game6getKeyEv
FNDA:0,_ZNK4Game6getKeyEv
FN:191,_ZN4Game8setPointEi
FNDA:15,_ZN4Game8setPointEi
FN:196,_ZNK4Game8getPointEv
FNDA:16,_ZNK4Game8getPointEv
FN:201,_ZNK4Game12getGameBoardEv
FNDA:5,_ZNK4Game12getGameBoardEv
FN:206,_ZN4Game12setGameBoardESt6vectorIS0_IiSaIiEESaIS2_EE
FNDA:12,_ZN4Game12setGameBoardESt6vectorIS0_IiSaIiEESaIS2_EE
FN:211,_ZNK4Game8isFinishEv
FNDA:0,_ZNK4Game8isFinishEv
DA:7,9
DA:9,9
DA:10,9
DA:12,9
DA:14,45
DA:16,36
DA:18,36
DA:20,216
DA:22,180
DA:25,36
DA:26,36
DA:27,9
DA:29,9
DA:31,9
DA:33,1
DA:35,3
DA:37,2
DA:39,1
DA:41,0
DA:43,0
DA:44,0
DA:46,0
DA:47,0
DA:49,0
DA:50,0
DA:52,0
DA:54,0
DA:55,0
DA:56,0
DA:58,0
DA:59,0
DA:60,0
DA:62,0
DA:63,0
DA:64,0
DA:65,0
DA:67,0
DA:71,0
DA:73,0
DA:75,0
DA:77,0
DA:78,0
DA:80,0
DA:82,0
DA:83,0
DA:85,0
DA:87,0
DA:88,0
DA:90,0
DA:92,0
DA:93,0
DA:95,0
DA:97,0
DA:98,0
DA:100,0
DA:102,0
DA:103,0
DA:105,0
DA:107,0
DA:108,0
DA:110,0
DA:112,0
DA:114,0
DA:115,0
DA:117,0
DA:119,0
DA:121,0
DA:122,0
DA:123,0
DA:125,0
DA:127,0
DA:128,0
DA:129,0
DA:131,4
DA:133,4
DA:135,4
DA:136,4
DA:138,4
DA:142,0
DA:144,0
DA:146,0
DA:148,0
DA:150,0
DA:154,0
DA:156,0
DA:158,0
DA:163,0
DA:166,10
DA:170,10
DA:171,10
DA:173,10
DA:175,6
DA:176,6
DA:178,4
DA:179,6
DA:181,0
DA:183,0
DA:184,0
DA:186,0
DA:188,0
DA:191,15
DA:193,15
DA:194,15
DA:196,16
DA:198,16
DA:201,5
DA:203,5
DA:206,12
DA:208,12
DA:209,12
DA:211,0
DA:213,0
end_of_record
TN:
SF:/home/nevena/VS/2048/src/KeyPushManager.cpp
FN:3,_ZN14KeyPushManagerC2ER4Game
FNDA:4,_ZN14KeyPushManagerC2ER4Game
FN:8,_ZN14KeyPushManager11waitKeyPushEv
FNDA:0,_ZN14KeyPushManager11waitKeyPushEv
FN:17,_ZN14KeyPushManager23onKeyboardHitRefactoredEv
FNDA:4,_ZN14KeyPushManager23onKeyboardHitRefactoredEv
FN:28,_ZN14KeyPushManager13onKeyboardHitEv
FNDA:4,_ZN14KeyPushManager13onKeyboardHitEv
FN:61,_ZN14KeyPushManager6moveUpEv
FNDA:1,_ZN14KeyPushManager6moveUpEv
FN:91,_ZN14KeyPushManager8moveDownEv
FNDA:1,_ZN14KeyPushManager8moveDownEv
FN:120,_ZN14KeyPushManager8moveLeftEv
FNDA:1,_ZN14KeyPushManager8moveLeftEv
FN:149,_ZN14KeyPushManager9moveRightEv
FNDA:1,_ZN14KeyPushManager9moveRightEv
FN:178,_ZNK14KeyPushManager12getGameBoardEv
FNDA:0,_ZNK14KeyPushManager12getGameBoardEv
FN:182,_ZN14KeyPushManager7setMKeyEi
FNDA:4,_ZN14KeyPushManager7setMKeyEi
DA:3,4
DA:5,4
DA:6,4
DA:8,0
DA:10,0
DA:11,0
DA:12,0
DA:14,0
DA:15,0
DA:17,4
DA:19,4
DA:20,4
DA:22,4
DA:24,4
DA:25,4
DA:26,4
DA:28,4
DA:30,4
DA:31,4
DA:33,1
DA:36,1
DA:38,1
DA:39,1
DA:42,1
DA:44,1
DA:45,1
DA:48,1
DA:50,1
DA:51,1
DA:54,1
DA:56,1
DA:58,4
DA:59,4
DA:61,1
DA:63,5
DA:65,16
DA:67,72
DA:69,60
DA:72,26
DA:73,44
DA:74,18
DA:77,13
DA:79,5
DA:81,13
DA:82,13
DA:83,13
DA:89,1
DA:91,1
DA:93,5
DA:95,16
DA:97,72
DA:99,60
DA:101,6
DA:102,8
DA:103,2
DA:106,6
DA:108,2
DA:110,6
DA:111,6
DA:112,6
DA:118,1
DA:120,1
DA:122,5
DA:124,20
DA:126,76
DA:128,60
DA:130,27
DA:131,40
DA:132,13
DA:135,18
DA:137,4
DA:139,18
DA:140,18
DA:141,18
DA:147,1
DA:149,1
DA:151,5
DA:153,20
DA:155,80
DA:157,64
DA:159,12
DA:160,16
DA:161,4
DA:164,8
DA:166,0
DA:168,8
DA:169,8
DA:170,8
DA:176,1
DA:178,0
DA:179,0
DA:182,4
DA:183,4
DA:184,4
end_of_record
TN:
SF:/home/nevena/VS/2048/src/Game.cpp
FN:7,_ZN4GameC2Ev
FNDA:6,_ZN4GameC2Ev
FN:29,_ZN4GameD2Ev
FNDA:6,_ZN4GameD2Ev
FN:33,_ZN4Game4initEv
FNDA:0,_ZN4Game4initEv
FN:41,_ZN4Game12drawHBarrierEi
FNDA:15,_ZN4Game12drawHBarrierEi
FN:52,_ZN4Game13drawGameBoardEv
FNDA:3,_ZN4Game13drawGameBoardEv
FN:125,_ZN4Game6updateEv
FNDA:0,_ZN4Game6updateEv
FN:131,_ZN4Game11checkFinishEv
FNDA:0,_ZN4Game11checkFinishEv
FN:166,_ZN4Game11fillRandPosERSt6vectorIS0_IiSaIiEESaIS2_EE
FNDA:0,_ZN4Game11fillRandPosERSt6vectorIS0_IiSaIiEESaIS2_EE
FN:181,_ZN4Game6setKeyEi
FNDA:0,_ZN4Game6setKeyEi
FN:186,_ZNK4Game6getKeyEv
FNDA:0,_ZNK4Game6getKeyEv
FN:191,_ZN4Game8setPointEi
FNDA:0,_ZN4Game8setPointEi
FN:196,_ZNK4Game8getPointEv
FNDA:0,_ZNK4Game8getPointEv
FN:201,_ZNK4Game12getGameBoardEv
FNDA:0,_ZNK4Game12getGameBoardEv
FN:206,_ZN4Game12setGameBoardESt6vectorIS0_IiSaIiEESaIS2_EE
FNDA:3,_ZN4Game12setGameBoardESt6vectorIS0_IiSaIiEESaIS2_EE
FN:211,_ZNK4Game8isFinishEv
FNDA:0,_ZNK4Game8isFinishEv
DA:7,6
DA:9,6
DA:10,6
DA:12,6
DA:14,30
DA:16,24
DA:18,24
DA:20,144
DA:22,120
DA:25,24
DA:26,24
DA:27,6
DA:29,6
DA:31,6
DA:33,0
DA:35,0
DA:37,0
DA:39,0
DA:41,15
DA:43,15
DA:44,90
DA:46,75
DA:47,75
DA:49,15
DA:50,15
DA:52,3
DA:54,3
DA:55,3
DA:56,15
DA:58,12
DA:59,12
DA:60,72
DA:62,60
DA:63,60
DA:64,60
DA:65,60
DA:67,30
DA:71,30
DA:73,6
DA:75,6
DA:77,6
DA:78,6
DA:80,6
DA:82,6
DA:83,3
DA:85,3
DA:87,3
DA:88,4
DA:90,4
DA:92,4
DA:93,3
DA:95,3
DA:97,3
DA:98,2
DA:100,2
DA:102,2
DA:103,4
DA:105,4
DA:107,4
DA:108,2
DA:110,2
DA:112,2
DA:114,30
DA:115,30
DA:117,60
DA:119,12
DA:121,3
DA:122,3
DA:123,3
DA:125,0
DA:127,0
DA:128,0
DA:129,0
DA:131,0
DA:133,0
DA:135,0
DA:136,0
DA:138,0
DA:142,0
DA:144,0
DA:146,0
DA:148,0
DA:150,0
DA:154,0
DA:156,0
DA:158,0
DA:163,0
DA:166,0
DA:170,0
DA:171,0
DA:173,0
DA:175,0
DA:176,0
DA:178,0
DA:179,0
DA:181,0
DA:183,0
DA:184,0
DA:186,0
DA:188,0
DA:191,0
DA:193,0
DA:194,0
DA:196,0
DA:198,0
DA:201,0
DA:203,0
DA:206,3
DA:208,3
DA:209,3
DA:211,0
DA:213,0
end_of_record
SF:/home/nevena/VS/2048/app/KeyPushManager.hpp
end_of_record
TN:
SF:/home/nevena/VS/2048/src/Kbhit.cpp
FN:4,_ZN5KbhitC2Ev
FNDA:0,_ZN5KbhitC2Ev
FN:17,_ZN5KbhitD2Ev
FNDA:0,_ZN5KbhitD2Ev
FN:22,_ZN5Kbhit5kbhitEv
FNDA:0,_ZN5Kbhit5kbhitEv
FN:42,_ZN5Kbhit5getchEv
FNDA:0,_ZN5Kbhit5getchEv
DA:4,0
DA:6,0
DA:7,0
DA:8,0
DA:9,0
DA:10,0
DA:11,0
DA:12,0
DA:13,0
DA:14,0
DA:15,0
DA:17,0
DA:19,0
DA:20,0
DA:22,0
DA:27,0
DA:28,0
DA:29,0
DA:30,0
DA:31,0
DA:32,0
DA:34,0
DA:36,0
DA:37,0
DA:39,0
DA:42,0
DA:46,0
DA:48,0
DA:49,0
DA:50,0
DA:52,0
end_of_record
TN:
SF:/home/nevena/VS/2048/src/Utils.cpp
FN:5,_ZN5Utils8randEvenEi
FNDA:24,_ZN5Utils8randEvenEi
DA:5,24
DA:7,24
DA:9,24
DA:11,5
DA:13,19
DA:15,15
DA:18,24
end_of_record
TN:
SF:/home/nevena/VS/2048/src/Kbhit.cpp
FN:4,_ZN5KbhitC2Ev
FNDA:0,_ZN5KbhitC2Ev
FN:17,_ZN5KbhitD2Ev
FNDA:0,_ZN5KbhitD2Ev
FN:22,_ZN5Kbhit5kbhitEv
FNDA:0,_ZN5Kbhit5kbhitEv
FN:42,_ZN5Kbhit5getchEv
FNDA:0,_ZN5Kbhit5getchEv
DA:4,0
DA:6,0
DA:7,0
DA:8,0
DA:9,0
DA:10,0
DA:11,0
DA:12,0
DA:13,0
DA:14,0
DA:15,0
DA:17,0
DA:19,0
DA:20,0
DA:22,0
DA:27,0
DA:28,0
DA:29,0
DA:30,0
DA:31,0
DA:32,0
DA:34,0
DA:36,0
DA:37,0
DA:39,0
DA:42,0
DA:46,0
DA:48,0
DA:49,0
DA:50,0
DA:52,0
end_of_record
TN:
SF:/home/nevena/VS/2048/src/KeyPushManager.cpp
FN:3,_ZN14KeyPushManagerC2ER4Game
FNDA:4,_ZN14KeyPushManagerC2ER4Game
FN:8,_ZN14KeyPushManager11waitKeyPushEv
FNDA:0,_ZN14KeyPushManager11waitKeyPushEv
FN:17,_ZN14KeyPushManager23onKeyboardHitRefactoredEv
FNDA:0,_ZN14KeyPushManager23onKeyboardHitRefactoredEv
FN:28,_ZN14KeyPushManager13onKeyboardHitEv
FNDA:4,_ZN14KeyPushManager13onKeyboardHitEv
FN:61,_ZN14KeyPushManager6moveUpEv
FNDA:4,_ZN14KeyPushManager6moveUpEv
FN:91,_ZN14KeyPushManager8moveDownEv
FNDA:0,_ZN14KeyPushManager8moveDownEv
FN:120,_ZN14KeyPushManager8moveLeftEv
FNDA:0,_ZN14KeyPushManager8moveLeftEv
FN:149,_ZN14KeyPushManager9moveRightEv
FNDA:0,_ZN14KeyPushManager9moveRightEv
FN:178,_ZNK14KeyPushManager12getGameBoardEv
FNDA:4,_ZNK14KeyPushManager12getGameBoardEv
FN:182,_ZN14KeyPushManager7setMKeyEi
FNDA:4,_ZN14KeyPushManager7setMKeyEi
DA:3,4
DA:5,4
DA:6,4
DA:8,0
DA:10,0
DA:11,0
DA:12,0
DA:14,0
DA:15,0
DA:17,0
DA:19,0
DA:20,0
DA:22,0
DA:24,0
DA:25,0
DA:26,0
DA:28,4
DA:30,4
DA:31,4
DA:33,0
DA:36,0
DA:38,0
DA:39,0
DA:42,0
DA:44,0
DA:45,4
DA:48,4
DA:50,4
DA:51,0
DA:54,0
DA:56,0
DA:58,4
DA:59,4
DA:61,4
DA:63,20
DA:65,64
DA:67,288
DA:69,240
DA:72,92
DA:73,164
DA:74,72
DA:77,27
DA:79,7
DA:81,27
DA:82,27
DA:83,27
DA:89,4
DA:91,0
DA:93,0
DA:95,0
DA:97,0
DA:99,0
DA:101,0
DA:102,0
DA:103,0
DA:106,0
DA:108,0
DA:110,0
DA:111,0
DA:112,0
DA:118,0
DA:120,0
DA:122,0
DA:124,0
DA:126,0
DA:128,0
DA:130,0
DA:131,0
DA:132,0
DA:135,0
DA:137,0
DA:139,0
DA:140,0
DA:141,0
DA:147,0
DA:149,0
DA:151,0
DA:153,0
DA:155,0
DA:157,0
DA:159,0
DA:160,0
DA:161,0
DA:164,0
DA:166,0
DA:168,0
DA:169,0
DA:170,0
DA:176,0
DA:178,4
DA:179,4
DA:182,4
DA:183,4
DA:184,4
end_of_record
TN:
SF:/home/nevena/VS/2048/app/KeyPushManager.hpp
end_of_record
SF:/home/nevena/VS/2048/src/Game.cpp
FN:7,_ZN4GameC2Ev
FNDA:8,_ZN4GameC2Ev
FN:29,_ZN4GameD2Ev
FNDA:8,_ZN4GameD2Ev
FN:33,_ZN4Game4initEv
FNDA:0,_ZN4Game4initEv
FN:41,_ZN4Game12drawHBarrierEi
FNDA:0,_ZN4Game12drawHBarrierEi
FN:52,_ZN4Game13drawGameBoardEv
FNDA:0,_ZN4Game13drawGameBoardEv
FN:125,_ZN4Game6updateEv
FNDA:0,_ZN4Game6updateEv
FN:131,_ZN4Game11checkFinishEv
FNDA:0,_ZN4Game11checkFinishEv
FN:166,_ZN4Game11fillRandPosERSt6vectorIS0_IiSaIiEESaIS2_EE
FNDA:0,_ZN4Game11fillRandPosERSt6vectorIS0_IiSaIiEESaIS2_EE
FN:181,_ZN4Game6setKeyEi
FNDA:0,_ZN4Game6setKeyEi
FN:186,_ZNK4Game6getKeyEv
FNDA:0,_ZNK4Game6getKeyEv
FN:191,_ZN4Game8setPointEi
FNDA:7,_ZN4Game8setPointEi
FN:196,_ZNK4Game8getPointEv
FNDA:7,_ZNK4Game8getPointEv
FN:201,_ZNK4Game12getGameBoardEv
FNDA:4,_ZNK4Game12getGameBoardEv
FN:206,_ZN4Game12setGameBoardESt6vectorIS0_IiSaIiEESaIS2_EE
FNDA:8,_ZN4Game12setGameBoardESt6vectorIS0_IiSaIiEESaIS2_EE
FN:211,_ZNK4Game8isFinishEv
FNDA:0,_ZNK4Game8isFinishEv
DA:7,8
DA:9,8
DA:10,8
DA:12,8
DA:14,40
DA:16,32
DA:18,32
DA:20,192
DA:22,160
DA:25,32
DA:26,32
DA:27,8
DA:29,8
DA:31,8
DA:33,0
DA:35,0
DA:37,0
DA:39,0
DA:41,0
DA:43,0
DA:44,0
DA:46,0
DA:47,0
DA:49,0
DA:50,0
DA:52,0
DA:54,0
DA:55,0
DA:56,0
DA:58,0
DA:59,0
DA:60,0
DA:62,0
DA:63,0
DA:64,0
DA:65,0
DA:67,0
DA:71,0
DA:73,0
DA:75,0
DA:77,0
DA:78,0
DA:80,0
DA:82,0
DA:83,0
DA:85,0
DA:87,0
DA:88,0
DA:90,0
DA:92,0
DA:93,0
DA:95,0
DA:97,0
DA:98,0
DA:100,0
DA:102,0
DA:103,0
DA:105,0
DA:107,0
DA:108,0
DA:110,0
DA:112,0
DA:114,0
DA:115,0
DA:117,0
DA:119,0
DA:121,0
DA:122,0
DA:123,0
DA:125,0
DA:127,0
DA:128,0
DA:129,0
DA:131,0
DA:133,0
DA:135,0
DA:136,0
DA:138,0
DA:142,0
DA:144,0
DA:146,0
DA:148,0
DA:150,0
DA:154,0
DA:156,0
DA:158,0
DA:163,0
DA:166,0
DA:170,0
DA:171,0
DA:173,0
DA:175,0
DA:176,0
DA:178,0
DA:179,0
DA:181,0
DA:183,0
DA:184,0
DA:186,0
DA:188,0
DA:191,7
DA:193,7
DA:194,7
DA:196,7
DA:198,7
DA:201,4
DA:203,4
DA:206,8
DA:208,8
DA:209,8
DA:211,0
DA:213,0
end_of_record
TN:
SF:/home/nevena/VS/2048/src/KeyPushManager.cpp
FN:3,_ZN14KeyPushManagerC2ER4Game
FNDA:0,_ZN14KeyPushManagerC2ER4Game
FN:8,_ZN14KeyPushManager11waitKeyPushEv
FNDA:0,_ZN14KeyPushManager11waitKeyPushEv
FN:17,_ZN14KeyPushManager23onKeyboardHitRefactoredEv
FNDA:0,_ZN14KeyPushManager23onKeyboardHitRefactoredEv
FN:28,_ZN14KeyPushManager13onKeyboardHitEv
FNDA:0,_ZN14KeyPushManager13onKeyboardHitEv
FN:61,_ZN14KeyPushManager6moveUpEv
FNDA:0,_ZN14KeyPushManager6moveUpEv
FN:91,_ZN14KeyPushManager8moveDownEv
FNDA:0,_ZN14KeyPushManager8moveDownEv
FN:120,_ZN14KeyPushManager8moveLeftEv
FNDA:0,_ZN14KeyPushManager8moveLeftEv
FN:149,_ZN14KeyPushManager9moveRightEv
FNDA:0,_ZN14KeyPushManager9moveRightEv
FN:178,_ZNK14KeyPushManager12getGameBoardEv
FNDA:0,_ZNK14KeyPushManager12getGameBoardEv
FN:182,_ZN14KeyPushManager7setMKeyEi
FNDA:0,_ZN14KeyPushManager7setMKeyEi
DA:3,0
DA:5,0
DA:6,0
DA:8,0
DA:10,0
DA:11,0
DA:12,0
DA:14,0
DA:15,0
DA:17,0
DA:19,0
DA:20,0
DA:22,0
DA:24,0
DA:25,0
DA:26,0
DA:28,0
DA:30,0
DA:31,0
DA:33,0
DA:36,0
DA:38,0
DA:39,0
DA:42,0
DA:44,0
DA:45,0
DA:48,0
DA:50,0
DA:51,0
DA:54,0
DA:56,0
DA:58,0
DA:59,0
DA:61,0
DA:63,0
DA:65,0
DA:67,0
DA:69,0
DA:72,0
DA:73,0
DA:74,0
DA:77,0
DA:79,0
DA:81,0
DA:82,0
DA:83,0
DA:89,0
DA:91,0
DA:93,0
DA:95,0
DA:97,0
DA:99,0
DA:101,0
DA:102,0
DA:103,0
DA:106,0
DA:108,0
DA:110,0
DA:111,0
DA:112,0
DA:118,0
DA:120,0
DA:122,0
DA:124,0
DA:126,0
DA:128,0
DA:130,0
DA:131,0
DA:132,0
DA:135,0
DA:137,0
DA:139,0
DA:140,0
DA:141,0
DA:147,0
DA:149,0
DA:151,0
DA:153,0
DA:155,0
DA:157,0
DA:159,0
DA:160,0
DA:161,0
DA:164,0
DA:166,0
DA:168,0
DA:169,0
DA:170,0
DA:176,0
DA:178,0
DA:179,0
DA:182,0
DA:183,0
DA:184,0
end_of_record
TN:
SF:/home/nevena/VS/2048/src/Utils.cpp
FN:5,_ZN5Utils8randEvenEi
FNDA:0,_ZN5Utils8randEvenEi
DA:5,0
DA:7,0
DA:9,0
DA:11,0
DA:13,0
DA:15,0
DA:18,0
end_of_record
TN:
SF:/home/nevena/VS/2048/src/KeyPushManager.cpp
FN:3,_ZN14KeyPushManagerC2ER4Game
FNDA:8,_ZN14KeyPushManagerC2ER4Game
FN:8,_ZN14KeyPushManager11waitKeyPushEv
FNDA:8,_ZN14KeyPushManager11waitKeyPushEv
FN:17,_ZN14KeyPushManager23onKeyboardHitRefactoredEv
FNDA:8,_ZN14KeyPushManager23onKeyboardHitRefactoredEv
FN:28,_ZN14KeyPushManager13onKeyboardHitEv
FNDA:8,_ZN14KeyPushManager13onKeyboardHitEv
FN:61,_ZN14KeyPushManager6moveUpEv
FNDA:2,_ZN14KeyPushManager6moveUpEv
FN:91,_ZN14KeyPushManager8moveDownEv
FNDA:2,_ZN14KeyPushManager8moveDownEv
FN:120,_ZN14KeyPushManager8moveLeftEv
FNDA:2,_ZN14KeyPushManager8moveLeftEv
FN:149,_ZN14KeyPushManager9moveRightEv
FNDA:2,_ZN14KeyPushManager9moveRightEv
FN:178,_ZNK14KeyPushManager12getGameBoardEv
FNDA:0,_ZNK14KeyPushManager12getGameBoardEv
FN:182,_ZN14KeyPushManager7setMKeyEi
FNDA:0,_ZN14KeyPushManager7setMKeyEi
DA:3,8
DA:5,8
DA:6,8
DA:8,8
DA:10,8
DA:11,8
DA:12,8
DA:14,8
DA:15,8
DA:17,8
DA:19,8
DA:20,8
DA:22,8
DA:24,8
DA:25,8
DA:26,8
DA:28,8
DA:30,8
DA:31,8
DA:33,2
DA:36,2
DA:38,2
DA:39,2
DA:42,2
DA:44,2
DA:45,2
DA:48,2
DA:50,2
DA:51,2
DA:54,2
DA:56,2
DA:58,8
DA:59,8
DA:61,2
DA:63,10
DA:65,32
DA:67,144
DA:69,120
DA:72,8
DA:73,9
DA:74,1
DA:77,8
DA:79,1
DA:81,8
DA:82,8
DA:83,8
DA:89,2
DA:91,2
DA:93,10
DA:95,32
DA:97,144
DA:99,120
DA:101,7
DA:102,7
DA:103,0
DA:106,7
DA:108,0
DA:110,7
DA:111,7
DA:112,7
DA:118,2
DA:120,2
DA:122,10
DA:124,40
DA:126,160
DA:128,128
DA:130,9
DA:131,9
DA:132,0
DA:135,9
DA:137,0
DA:139,9
DA:140,9
DA:141,9
DA:147,2
DA:149,2
DA:151,10
DA:153,40
DA:155,160
DA:157,128
DA:159,4
DA:160,5
DA:161,1
DA:164,4
DA:166,1
DA:168,4
DA:169,4
DA:170,4
DA:176,2
DA:178,0
DA:179,0
DA:182,0
DA:183,0
DA:184,0
end_of_record
TN:
SF:/home/nevena/VS/2048/src/Kbhit.cpp
FN:4,_ZN5KbhitC2Ev
FNDA:8,_ZN5KbhitC2Ev
FN:17,_ZN5KbhitD2Ev
FNDA:8,_ZN5KbhitD2Ev
FN:22,_ZN5Kbhit5kbhitEv
FNDA:0,_ZN5Kbhit5kbhitEv
FN:42,_ZN5Kbhit5getchEv
FNDA:8,_ZN5Kbhit5getchEv
DA:4,8
DA:6,8
DA:7,8
DA:8,8
DA:9,8
DA:10,8
DA:11,8
DA:12,8
DA:13,8
DA:14,8
DA:15,8
DA:17,8
DA:19,8
DA:20,8
DA:22,0
DA:27,0
DA:28,0
DA:29,0
DA:30,0
DA:31,0
DA:32,0
DA:34,0
DA:36,0
DA:37,0
DA:39,0
DA:42,8
DA:46,8
DA:48,0
DA:49,0
DA:50,8
DA:52,8
end_of_record
TN:
SF:/home/nevena/VS/2048/src/Kbhit.cpp
FN:4,_ZN5KbhitC2Ev
FNDA:0,_ZN5KbhitC2Ev
FN:17,_ZN5KbhitD2Ev
FNDA:0,_ZN5KbhitD2Ev
FN:22,_ZN5Kbhit5kbhitEv
FNDA:0,_ZN5Kbhit5kbhitEv
FN:42,_ZN5Kbhit5getchEv
FNDA:0,_ZN5Kbhit5getchEv
DA:4,0
DA:6,0
DA:7,0
DA:8,0
DA:9,0
DA:10,0
DA:11,0
DA:12,0
DA:13,0
DA:14,0
DA:15,0
DA:17,0
DA:19,0
DA:20,0
DA:22,0
DA:27,0
DA:28,0
DA:29,0
DA:30,0
DA:31,0
DA:32,0
DA:34,0
DA:36,0
DA:37,0
DA:39,0
DA:42,0
DA:46,0
DA:48,0
DA:49,0
DA:50,0
DA:52,0
end_of_record
TN:
SF:/home/nevena/VS/2048/src/Game.cpp
FN:7,_ZN4GameC2Ev
FNDA:8,_ZN4GameC2Ev
FN:29,_ZN4GameD2Ev
FNDA:8,_ZN4GameD2Ev
FN:33,_ZN4Game4initEv
FNDA:8,_ZN4Game4initEv
FN:41,_ZN4Game12drawHBarrierEi
FNDA:0,_ZN4Game12drawHBarrierEi
FN:52,_ZN4Game13drawGameBoardEv
FNDA:0,_ZN4Game13drawGameBoardEv
FN:125,_ZN4Game6updateEv
FNDA:8,_ZN4Game6updateEv
FN:131,_ZN4Game11checkFinishEv
FNDA:8,_ZN4Game11checkFinishEv
FN:166,_ZN4Game11fillRandPosERSt6vectorIS0_IiSaIiEESaIS2_EE
FNDA:24,_ZN4Game11fillRandPosERSt6vectorIS0_IiSaIiEESaIS2_EE
FN:181,_ZN4Game6setKeyEi
FNDA:8,_ZN4Game6setKeyEi
FN:186,_ZNK4Game6getKeyEv
FNDA:8,_ZNK4Game6getKeyEv
FN:191,_ZN4Game8setPointEi
FNDA:2,_ZN4Game8setPointEi
FN:196,_ZNK4Game8getPointEv
FNDA:2,_ZNK4Game8getPointEv
FN:201,_ZNK4Game12getGameBoardEv
FNDA:8,_ZNK4Game12getGameBoardEv
FN:206,_ZN4Game12setGameBoardESt6vectorIS0_IiSaIiEESaIS2_EE
FNDA:16,_ZN4Game12setGameBoardESt6vectorIS0_IiSaIiEESaIS2_EE
FN:211,_ZNK4Game8isFinishEv
FNDA:0,_ZNK4Game8isFinishEv
DA:7,8
DA:9,8
DA:10,8
DA:12,8
DA:14,40
DA:16,32
DA:18,32
DA:20,192
DA:22,160
DA:25,32
DA:26,32
DA:27,8
DA:29,8
DA:31,8
DA:33,8
DA:35,24
DA:37,16
DA:39,8
DA:41,0
DA:43,0
DA:44,0
DA:46,0
DA:47,0
DA:49,0
DA:50,0
DA:52,0
DA:54,0
DA:55,0
DA:56,0
DA:58,0
DA:59,0
DA:60,0
DA:62,0
DA:63,0
DA:64,0
DA:65,0
DA:67,0
DA:71,0
DA:73,0
DA:75,0
DA:77,0
DA:78,0
DA:80,0
DA:82,0
DA:83,0
DA:85,0
DA:87,0
DA:88,0
DA:90,0
DA:92,0
DA:93,0
DA:95,0
DA:97,0
DA:98,0
DA:100,0
DA:102,0
DA:103,0
DA:105,0
DA:107,0
DA:108,0
DA:110,0
DA:112,0
DA:114,0
DA:115,0
DA:117,0
DA:119,0
DA:121,0
DA:122,0
DA:123,0
DA:125,8
DA:127,8
DA:128,8
DA:129,8
DA:131,8
DA:133,8
DA:135,8
DA:136,8
DA:138,8
DA:142,0
DA:144,0
DA:146,0
DA:148,0
DA:150,0
DA:154,0
DA:156,0
DA:158,0
DA:163,0
DA:166,25
DA:170,25
DA:171,25
DA:173,25
DA:175,24
DA:176,24
DA:178,1
DA:179,24
DA:181,8
DA:183,8
DA:184,8
DA:186,8
DA:188,8
DA:191,2
DA:193,2
DA:194,2
DA:196,2
DA:198,2
DA:201,8
DA:203,8
DA:206,16
DA:208,16
DA:209,16
DA:211,0
DA:213,0
end_of_record
SF:/home/nevena/VS/2048/app/KeyPushManager.hpp
end_of_record
TN:
SF:/home/nevena/VS/2048/src/Game.cpp
FN:7,_ZN4GameC2Ev
FNDA:8,_ZN4GameC2Ev
FN:29,_ZN4GameD2Ev
FNDA:8,_ZN4GameD2Ev
FN:33,_ZN4Game4initEv
FNDA:0,_ZN4Game4initEv
FN:41,_ZN4Game12drawHBarrierEi
FNDA:0,_ZN4Game12drawHBarrierEi
FN:52,_ZN4Game13drawGameBoardEv
FNDA:0,_ZN4Game13drawGameBoardEv
FN:125,_ZN4Game6updateEv
FNDA:0,_ZN4Game6updateEv
FN:131,_ZN4Game11checkFinishEv
FNDA:0,_ZN4Game11checkFinishEv
FN:166,_ZN4Game11fillRandPosERSt6vectorIS0_IiSaIiEESaIS2_EE
FNDA:0,_ZN4Game11fillRandPosERSt6vectorIS0_IiSaIiEESaIS2_EE
FN:181,_ZN4Game6setKeyEi
FNDA:0,_ZN4Game6setKeyEi
FN:186,_ZNK4Game6getKeyEv
FNDA:0,_ZNK4Game6getKeyEv
FN:191,_ZN4Game8setPointEi
FNDA:7,_ZN4Game8setPointEi
FN:196,_ZNK4Game8getPointEv
FNDA:7,_ZNK4Game8getPointEv
FN:201,_ZNK4Game12getGameBoardEv
FNDA:4,_ZNK4Game12getGameBoardEv
FN:206,_ZN4Game12setGameBoardESt6vectorIS0_IiSaIiEESaIS2_EE
FNDA:8,_ZN4Game12setGameBoardESt6vectorIS0_IiSaIiEESaIS2_EE
FN:211,_ZNK4Game8isFinishEv
FNDA:0,_ZNK4Game8isFinishEv
DA:7,8
DA:9,8
DA:10,8
DA:12,8
DA:14,40
DA:16,32
DA:18,32
DA:20,192
DA:22,160
DA:25,32
DA:26,32
DA:27,8
DA:29,8
DA:31,8
DA:33,0
DA:35,0
DA:37,0
DA:39,0
DA:41,0
DA:43,0
DA:44,0
DA:46,0
DA:47,0
DA:49,0
DA:50,0
DA:52,0
DA:54,0
DA:55,0
DA:56,0
DA:58,0
DA:59,0
DA:60,0
DA:62,0
DA:63,0
DA:64,0
DA:65,0
DA:67,0
DA:71,0
DA:73,0
DA:75,0
DA:77,0
DA:78,0
DA:80,0
DA:82,0
DA:83,0
DA:85,0
DA:87,0
DA:88,0
DA:90,0
DA:92,0
DA:93,0
DA:95,0
DA:97,0
DA:98,0
DA:100,0
DA:102,0
DA:103,0
DA:105,0
DA:107,0
DA:108,0
DA:110,0
DA:112,0
DA:114,0
DA:115,0
DA:117,0
DA:119,0
DA:121,0
DA:122,0
DA:123,0
DA:125,0
DA:127,0
DA:128,0
DA:129,0
DA:131,0
DA:133,0
DA:135,0
DA:136,0
DA:138,0
DA:142,0
DA:144,0
DA:146,0
DA:148,0
DA:150,0
DA:154,0
DA:156,0
DA:158,0
DA:163,0
DA:166,0
DA:170,0
DA:171,0
DA:173,0
DA:175,0
DA:176,0
DA:178,0
DA:179,0
DA:181,0
DA:183,0
DA:184,0
DA:186,0
DA:188,0
DA:191,7
DA:193,7
DA:194,7
DA:196,7
DA:198,7
DA:201,4
DA:203,4
DA:206,8
DA:208,8
DA:209,8
DA:211,0
DA:213,0
end_of_record
SF:/home/nevena/VS/2048/app/KeyPushManager.hpp
end_of_record
TN:
SF:/home/nevena/VS/2048/src/Utils.cpp
FN:5,_ZN5Utils8randEvenEi
FNDA:6,_ZN5Utils8randEvenEi
DA:5,6
DA:7,6
DA:9,6
DA:11,0
DA:13,6
DA:15,5
DA:18,6
end_of_record
TN:
SF:/home/nevena/VS/2048/src/Game.cpp
FN:7,_ZN4GameC2Ev
FNDA:8,_ZN4GameC2Ev
FN:29,_ZN4GameD2Ev
FNDA:8,_ZN4GameD2Ev
FN:33,_ZN4Game4initEv
FNDA:0,_ZN4Game4initEv
FN:41,_ZN4Game12drawHBarrierEi
FNDA:0,_ZN4Game12drawHBarrierEi
FN:52,_ZN4Game13drawGameBoardEv
FNDA:0,_ZN4Game13drawGameBoardEv
FN:125,_ZN4Game6updateEv
FNDA:0,_ZN4Game6updateEv
FN:131,_ZN4Game11checkFinishEv
FNDA:0,_ZN4Game11checkFinishEv
FN:166,_ZN4Game11fillRandPosERSt6vectorIS0_IiSaIiEESaIS2_EE
FNDA:0,_ZN4Game11fillRandPosERSt6vectorIS0_IiSaIiEESaIS2_EE
FN:181,_ZN4Game6setKeyEi
FNDA:0,_ZN4Game6setKeyEi
FN:186,_ZNK4Game6getKeyEv
FNDA:0,_ZNK4Game6getKeyEv
FN:191,_ZN4Game8setPointEi
FNDA:7,_ZN4Game8setPointEi
FN:196,_ZNK4Game8getPointEv
FNDA:7,_ZNK4Game8getPointEv
FN:201,_ZNK4Game12getGameBoardEv
FNDA:4,_ZNK4Game12getGameBoardEv
FN:206,_ZN4Game12setGameBoardESt6vectorIS0_IiSaIiEESaIS2_EE
FNDA:8,_ZN4Game12setGameBoardESt6vectorIS0_IiSaIiEESaIS2_EE
FN:211,_ZNK4Game8isFinishEv
FNDA:0,_ZNK4Game8isFinishEv
DA:7,8
DA:9,8
DA:10,8
DA:12,8
DA:14,40
DA:16,32
DA:18,32
DA:20,192
DA:22,160
DA:25,32
DA:26,32
DA:27,8
DA:29,8
DA:31,8
DA:33,0
DA:35,0
DA:37,0
DA:39,0
DA:41,0
DA:43,0
DA:44,0
DA:46,0
DA:47,0
DA:49,0
DA:50,0
DA:52,0
DA:54,0
DA:55,0
DA:56,0
DA:58,0
DA:59,0
DA:60,0
DA:62,0
DA:63,0
DA:64,0
DA:65,0
DA:67,0
DA:71,0
DA:73,0
DA:75,0
DA:77,0
DA:78,0
DA:80,0
DA:82,0
DA:83,0
DA:85,0
DA:87,0
DA:88,0
DA:90,0
DA:92,0
DA:93,0
DA:95,0
DA:97,0
DA:98,0
DA:100,0
DA:102,0
DA:103,0
DA:105,0
DA:107,0
DA:108,0
DA:110,0
DA:112,0
DA:114,0
DA:115,0
DA:117,0
DA:119,0
DA:121,0
DA:122,0
DA:123,0
DA:125,0
DA:127,0
DA:128,0
DA:129,0
DA:131,0
DA:133,0
DA:135,0
DA:136,0
DA:138,0
DA:142,0
DA:144,0
DA:146,0
DA:148,0
DA:150,0
DA:154,0
DA:156,0
DA:158,0
DA:163,0
DA:166,0
DA:170,0
DA:171,0
DA:173,0
DA:175,0
DA:176,0
DA:178,0
DA:179,0
DA:181,0
DA:183,0
DA:184,0
DA:186,0
DA:188,0
DA:191,7
DA:193,7
DA:194,7
DA:196,7
DA:198,7
DA:201,4
DA:203,4
DA:206,8
DA:208,8
DA:209,8
DA:211,0
DA:213,0
end_of_record
SF:/home/nevena/VS/2048/app/KeyPushManager.hpp
end_of_record
TN:
SF:/home/nevena/VS/2048/src/Kbhit.cpp
FN:4,_ZN5KbhitC2Ev
FNDA:0,_ZN5KbhitC2Ev
FN:17,_ZN5KbhitD2Ev
FNDA:0,_ZN5KbhitD2Ev
FN:22,_ZN5Kbhit5kbhitEv
FNDA:0,_ZN5Kbhit5kbhitEv
FN:42,_ZN5Kbhit5getchEv
FNDA:0,_ZN5Kbhit5getchEv
DA:4,0
DA:6,0
DA:7,0
DA:8,0
DA:9,0
DA:10,0
DA:11,0
DA:12,0
DA:13,0
DA:14,0
DA:15,0
DA:17,0
DA:19,0
DA:20,0
DA:22,0
DA:27,0
DA:28,0
DA:29,0
DA:30,0
DA:31,0
DA:32,0
DA:34,0
DA:36,0
DA:37,0
DA:39,0
DA:42,0
DA:46,0
DA:48,0
DA:49,0
DA:50,0
DA:52,0
end_of_record
TN:
SF:/home/nevena/VS/2048/src/Utils.cpp
FN:5,_ZN5Utils8randEvenEi
FNDA:0,_ZN5Utils8randEvenEi
DA:5,0
DA:7,0
DA:9,0
DA:11,0
DA:13,0
DA:15,0
DA:18,0
end_of_record
TN:
SF:/home/nevena/VS/2048/src/Game.cpp
FN:7,_ZN4GameC2Ev
FNDA:8,_ZN4GameC2Ev
FN:29,_ZN4GameD2Ev
FNDA:8,_ZN4GameD2Ev
FN:33,_ZN4Game4initEv
FNDA:0,_ZN4Game4initEv
FN:41,_ZN4Game12drawHBarrierEi
FNDA:0,_ZN4Game12drawHBarrierEi
FN:52,_ZN4Game13drawGameBoardEv
FNDA:0,_ZN4Game13drawGameBoardEv
FN:125,_ZN4Game6updateEv
FNDA:0,_ZN4Game6updateEv
FN:131,_ZN4Game11checkFinishEv
FNDA:0,_ZN4Game11checkFinishEv
FN:166,_ZN4Game11fillRandPosERSt6vectorIS0_IiSaIiEESaIS2_EE
FNDA:0,_ZN4Game11fillRandPosERSt6vectorIS0_IiSaIiEESaIS2_EE
FN:181,_ZN4Game6setKeyEi
FNDA:0,_ZN4Game6setKeyEi
FN:186,_ZNK4Game6getKeyEv
FNDA:0,_ZNK4Game6getKeyEv
FN:191,_ZN4Game8setPointEi
FNDA:7,_ZN4Game8setPointEi
FN:196,_ZNK4Game8getPointEv
FNDA:7,_ZNK4Game8getPointEv
FN:201,_ZNK4Game12getGameBoardEv
FNDA:4,_ZNK4Game12getGameBoardEv
FN:206,_ZN4Game12setGameBoardESt6vectorIS0_IiSaIiEESaIS2_EE
FNDA:8,_ZN4Game12setGameBoardESt6vectorIS0_IiSaIiEESaIS2_EE
FN:211,_ZNK4Game8isFinishEv
FNDA:0,_ZNK4Game8isFinishEv
DA:7,8
DA:9,8
DA:10,8
DA:12,8
DA:14,40
DA:16,32
DA:18,32
DA:20,192
DA:22,160
DA:25,32
DA:26,32
DA:27,8
DA:29,8
DA:31,8
DA:33,0
DA:35,0
DA:37,0
DA:39,0
DA:41,0
DA:43,0
DA:44,0
DA:46,0
DA:47,0
DA:49,0
DA:50,0
DA:52,0
DA:54,0
DA:55,0
DA:56,0
DA:58,0
DA:59,0
DA:60,0
DA:62,0
DA:63,0
DA:64,0
DA:65,0
DA:67,0
DA:71,0
DA:73,0
DA:75,0
DA:77,0
DA:78,0
DA:80,0
DA:82,0
DA:83,0
DA:85,0
DA:87,0
DA:88,0
DA:90,0
DA:92,0
DA:93,0
DA:95,0
DA:97,0
DA:98,0
DA:100,0
DA:102,0
DA:103,0
DA:105,0
DA:107,0
DA:108,0
DA:110,0
DA:112,0
DA:114,0
DA:115,0
DA:117,0
DA:119,0
DA:121,0
DA:122,0
DA:123,0
DA:125,0
DA:127,0
DA:128,0
DA:129,0
DA:131,0
DA:133,0
DA:135,0
DA:136,0
DA:138,0
DA:142,0
DA:144,0
DA:146,0
DA:148,0
DA:150,0
DA:154,0
DA:156,0
DA:158,0
DA:163,0
DA:166,0
DA:170,0
DA:171,0
DA:173,0
DA:175,0
DA:176,0
DA:178,0
DA:179,0
DA:181,0
DA:183,0
DA:184,0
DA:186,0
DA:188,0
DA:191,7
DA:193,7
DA:194,7
DA:196,7
DA:198,7
DA:201,4
DA:203,4
DA:206,8
DA:208,8
DA:209,8
DA:211,0
DA:213,0
end_of_record
SF:/home/nevena/VS/2048/app/KeyPushManager.hpp
end_of_record
TN:
SF:/home/nevena/VS/2048/src/KeyPushManager.cpp
FN:3,_ZN14KeyPushManagerC2ER4Game
FNDA:4,_ZN14KeyPushManagerC2ER4Game
FN:8,_ZN14KeyPushManager11waitKeyPushEv
FNDA:0,_ZN14KeyPushManager11waitKeyPushEv
FN:17,_ZN14KeyPushManager23onKeyboardHitRefactoredEv
FNDA:0,_ZN14KeyPushManager23onKeyboardHitRefactoredEv
FN:28,_ZN14KeyPushManager13onKeyboardHitEv
FNDA:4,_ZN14KeyPushManager13onKeyboardHitEv
FN:61,_ZN14KeyPushManager6moveUpEv
FNDA:0,_ZN14KeyPushManager6moveUpEv
FN:91,_ZN14KeyPushManager8moveDownEv
FNDA:0,_ZN14KeyPushManager8moveDownEv
FN:120,_ZN14KeyPushManager8moveLeftEv
FNDA:0,_ZN14KeyPushManager8moveLeftEv
FN:149,_ZN14KeyPushManager9moveRightEv
FNDA:4,_ZN14KeyPushManager9moveRightEv
FN:178,_ZNK14KeyPushManager12getGameBoardEv
FNDA:4,_ZNK14KeyPushManager12getGameBoardEv
FN:182,_ZN14KeyPushManager7setMKeyEi
FNDA:4,_ZN14KeyPushManager7setMKeyEi
DA:3,4
DA:5,4
DA:6,4
DA:8,0
DA:10,0
DA:11,0
DA:12,0
DA:14,0
DA:15,0
DA:17,0
DA:19,0
DA:20,0
DA:22,0
DA:24,0
DA:25,0
DA:26,0
DA:28,4
DA:30,4
DA:31,4
DA:33,0
DA:36,0
DA:38,0
DA:39,0
DA:42,0
DA:44,0
DA:45,0
DA:48,0
DA:50,0
DA:51,4
DA:54,4
DA:56,4
DA:58,4
DA:59,4
DA:61,0
DA:63,0
DA:65,0
DA:67,0
DA:69,0
DA:72,0
DA:73,0
DA:74,0
DA:77,0
DA:79,0
DA:81,0
DA:82,0
DA:83,0
DA:89,0
DA:91,0
DA:93,0
DA:95,0
DA:97,0
DA:99,0
DA:101,0
DA:102,0
DA:103,0
DA:106,0
DA:108,0
DA:110,0
DA:111,0
DA:112,0
DA:118,0
DA:120,0
DA:122,0
DA:124,0
DA:126,0
DA:128,0
DA:130,0
DA:131,0
DA:132,0
DA:135,0
DA:137,0
DA:139,0
DA:140,0
DA:141,0
DA:147,0
DA:149,4
DA:151,20
DA:153,80
DA:155,320
DA:157,256
DA:159,103
DA:160,183
DA:161,80
DA:164,30
DA:166,7
DA:168,30
DA:169,30
DA:170,30
DA:176,4
DA:178,4
DA:179,4
DA:182,4
DA:183,4
DA:184,4
end_of_record
TN:
SF:/home/nevena/VS/2048/src/Utils.cpp
FN:5,_ZN5Utils8randEvenEi
FNDA:0,_ZN5Utils8randEvenEi
DA:5,0
DA:7,0
DA:9,0
DA:11,0
DA:13,0
DA:15,0
DA:18,0
end_of_record
TN:
SF:/home/nevena/VS/2048/src/Kbhit.cpp
FN:4,_ZN5KbhitC2Ev
FNDA:0,_ZN5KbhitC2Ev
FN:17,_ZN5KbhitD2Ev
FNDA:0,_ZN5KbhitD2Ev
FN:22,_ZN5Kbhit5kbhitEv
FNDA:0,_ZN5Kbhit5kbhitEv
FN:42,_ZN5Kbhit5getchEv
FNDA:0,_ZN5Kbhit5getchEv
DA:4,0
DA:6,0
DA:7,0
DA:8,0
DA:9,0
DA:10,0
DA:11,0
DA:12,0
DA:13,0
DA:14,0
DA:15,0
DA:17,0
DA:19,0
DA:20,0
DA:22,0
DA:27,0
DA:28,0
DA:29,0
DA:30,0
DA:31,0
DA:32,0
DA:34,0
DA:36,0
DA:37,0
DA:39,0
DA:42,0
DA:46,0
DA:48,0
DA:49,0
DA:50,0
DA:52,0
end_of_record
